target datalayout = "e-m:e-p270:32:32-p271:32:32-p272:64:64-i64:64-i128:128-f80:128-n8:16:32:64-S128"
target triple = "x86_64-pc-linux-gnu"

%struct.gmx_stats = type { double, double, double, double, double, double, double, double, double, double, double, ptr, ptr, ptr, ptr, i32, i32, i32 }

; Function Attrs: mustprogress uwtable
define void @_Z16gmx_stats_get_abP9gmx_statsiPfS1_S1_S1_S1_S1_(ptr noundef %0, i32 noundef %1, ptr noundef %2, ptr noundef %3, ptr noundef %4, ptr noundef %5, ptr noundef %6, ptr noundef %7) #0 {
  %9 = alloca ptr, align 8
  %10 = alloca i32, align 4
  %11 = alloca ptr, align 8
  %12 = alloca ptr, align 8
  %13 = alloca ptr, align 8
  %14 = alloca ptr, align 8
  %15 = alloca ptr, align 8
  %16 = alloca ptr, align 8
  %17 = alloca ptr, align 8
  store ptr %0, ptr %9, align 8
  store i32 %1, ptr %10, align 4
  store ptr %2, ptr %11, align 8
  store ptr %3, ptr %12, align 8
  store ptr %4, ptr %13, align 8
  store ptr %5, ptr %14, align 8
  store ptr %6, ptr %15, align 8
  store ptr %7, ptr %16, align 8
  %18 = load ptr, ptr %9, align 8
  store ptr %18, ptr %17, align 8
  %19 = load ptr, ptr %17, align 8
  %20 = load i32, ptr %10, align 4
  call void @_ZL17gmx_stats_computeP9gmx_statsi(ptr noundef %19, i32 noundef %20)
  %21 = load ptr, ptr %11, align 8
  %22 = icmp ne ptr null, %21
  br i1 %22, label %23, label %29

23:                                               ; preds = %8
  %24 = load ptr, ptr %17, align 8
  %25 = getelementptr inbounds %struct.gmx_stats, ptr %24, i32 0, i32 1
  %26 = load double, ptr %25, align 8
  %27 = fptrunc double %26 to float
  %28 = load ptr, ptr %11, align 8
  store float %27, ptr %28, align 4
  br label %29

29:                                               ; preds = %23, %8
  %30 = load ptr, ptr %12, align 8
  %31 = icmp ne ptr null, %30
  br i1 %31, label %32, label %38

32:                                               ; preds = %29
  %33 = load ptr, ptr %17, align 8
  %34 = getelementptr inbounds %struct.gmx_stats, ptr %33, i32 0, i32 2
  %35 = load double, ptr %34, align 8
  %36 = fptrunc double %35 to float
  %37 = load ptr, ptr %12, align 8
  store float %36, ptr %37, align 4
  br label %38

38:                                               ; preds = %32, %29
  %39 = load ptr, ptr %13, align 8
  %40 = icmp ne ptr null, %39
  br i1 %40, label %41, label %47

41:                                               ; preds = %38
  %42 = load ptr, ptr %17, align 8
  %43 = getelementptr inbounds %struct.gmx_stats, ptr %42, i32 0, i32 3
  %44 = load double, ptr %43, align 8
  %45 = fptrunc double %44 to float
  %46 = load ptr, ptr %13, align 8
  store float %45, ptr %46, align 4
  br label %47

47:                                               ; preds = %41, %38
  %48 = load ptr, ptr %14, align 8
  %49 = icmp ne ptr null, %48
  br i1 %49, label %50, label %56

50:                                               ; preds = %47
  %51 = load ptr, ptr %17, align 8
  %52 = getelementptr inbounds %struct.gmx_stats, ptr %51, i32 0, i32 4
  %53 = load double, ptr %52, align 8
  %54 = fptrunc double %53 to float
  %55 = load ptr, ptr %14, align 8
  store float %54, ptr %55, align 4
  br label %56

56:                                               ; preds = %50, %47
  %57 = load ptr, ptr %15, align 8
  %58 = icmp ne ptr null, %57
  br i1 %58, label %59, label %65

59:                                               ; preds = %56
  %60 = load ptr, ptr %17, align 8
  %61 = getelementptr inbounds %struct.gmx_stats, ptr %60, i32 0, i32 10
  %62 = load double, ptr %61, align 8
  %63 = fptrunc double %62 to float
  %64 = load ptr, ptr %15, align 8
  store float %63, ptr %64, align 4
  br label %65

65:                                               ; preds = %59, %56
  %66 = load ptr, ptr %16, align 8
  %67 = icmp ne ptr null, %66
  br i1 %67, label %68, label %74

68:                                               ; preds = %65
  %69 = load ptr, ptr %17, align 8
  %70 = getelementptr inbounds %struct.gmx_stats, ptr %69, i32 0, i32 9
  %71 = load double, ptr %70, align 8
  %72 = fptrunc double %71 to float
  %73 = load ptr, ptr %16, align 8
  store float %72, ptr %73, align 4
  br label %74

74:                                               ; preds = %68, %65
  ret void
}