; Function Attrs: mustprogress uwtable
define void @_Z16gmx_stats_get_abP9gmx_statsiPfS1_S1_S1_S1_S1_(ptr nocapture noundef %0, i32 noundef %1, ptr noundef writeonly %2, ptr noundef writeonly %3, ptr noundef writeonly %4, ptr noundef writeonly %5, ptr noundef writeonly %6, ptr noundef writeonly %7) local_unnamed_addr #0 {
  tail call fastcc void @_ZL17gmx_stats_computeP9gmx_statsi(ptr noundef %0, i32 noundef %1)
  %.not = icmp eq ptr %2, null
  br i1 %.not, label %13, label %9

9:                                                ; preds = %8
  %10 = getelementptr inbounds i8, ptr %0, i64 8
  %11 = load double, ptr %10, align 8
  %12 = fptrunc double %11 to float
  store float %12, ptr %2, align 4
  br label %13

13:                                               ; preds = %9, %8
  %.not25 = icmp eq ptr %3, null
  br i1 %.not25, label %18, label %14

14:                                               ; preds = %13
  %15 = getelementptr inbounds i8, ptr %0, i64 16
  %16 = load double, ptr %15, align 8
  %17 = fptrunc double %16 to float
  store float %17, ptr %3, align 4
  br label %18

18:                                               ; preds = %14, %13
  %.not26 = icmp eq ptr %4, null
  br i1 %.not26, label %23, label %19

19:                                               ; preds = %18
  %20 = getelementptr inbounds i8, ptr %0, i64 24
  %21 = load double, ptr %20, align 8
  %22 = fptrunc double %21 to float
  store float %22, ptr %4, align 4
  br label %23

23:                                               ; preds = %19, %18
  %.not27 = icmp eq ptr %5, null
  br i1 %.not27, label %28, label %24

24:                                               ; preds = %23
  %25 = getelementptr inbounds i8, ptr %0, i64 32
  %26 = load double, ptr %25, align 8
  %27 = fptrunc double %26 to float
  store float %27, ptr %5, align 4
  br label %28

28:                                               ; preds = %24, %23
  %.not28 = icmp eq ptr %6, null
  br i1 %.not28, label %33, label %29

29:                                               ; preds = %28
  %30 = getelementptr inbounds i8, ptr %0, i64 80
  %31 = load double, ptr %30, align 8
  %32 = fptrunc double %31 to float
  store float %32, ptr %6, align 4
  br label %33

33:                                               ; preds = %29, %28
  %.not29 = icmp eq ptr %7, null
  br i1 %.not29, label %38, label %34

34:                                               ; preds = %33
  %35 = getelementptr inbounds i8, ptr %0, i64 72
  %36 = load double, ptr %35, align 8
  %37 = fptrunc double %36 to float
  store float %37, ptr %7, align 4
  br label %38

38:                                               ; preds = %34, %33
  ret void
}